(dp0
S'METTS MARK'
p1
(dp2
S'to_messages'
p3
F807.0
sS'deferral_payments'
p4
S'NaN'
p5
sS'expenses'
p6
F94299.0
sS'poi'
p7
I00
sS'percentage_salary'
p8
F0.22210847239856482
sS'long_term_incentive'
p9
S'NaN'
p10
sS'email_address'
p11
S'mark.metts@enron.com'
p12
sS'from_poi_to_this_person'
p13
F38.0
sS'deferred_income'
p14
S'NaN'
p15
sS'restricted_stock_deferred'
p16
S'NaN'
p17
sS'shared_receipt_with_poi'
p18
F702.0
sS'loan_advances'
p19
S'NaN'
p20
sS'from_messages'
p21
F29.0
sS'other'
p22
F1740.0
sS'director_fees'
p23
S'NaN'
p24
sS'bonus'
p25
F600000.0
sS'total_stock_value'
p26
F585062.0
sS'from_this_person_to_poi'
p27
F1.0
sS'restricted_stock'
p28
F585062.0
sS'salary'
p29
F365788.0
sS'total_payments'
p30
F1061827.0
sS'exercised_stock_options'
p31
S'NaN'
p32
ssS'BAXTER JOHN C'
p33
(dp34
g3
S'NaN'
p35
sg4
F1295738.0
sg6
F11200.0
sg7
I00
sg8
F0.016429361256928374
sg9
F1586055.0
sg11
S'NaN'
p36
sg13
S'NaN'
p37
sg14
F-1386055.0
sg16
g17
sg18
S'NaN'
p38
sg19
g20
sg21
S'NaN'
p39
sg22
F2660303.0
sg23
g24
sg25
F1200000.0
sg26
F10623258.0
sg27
S'NaN'
p40
sg28
F3942714.0
sg29
F267102.0
sg30
F5634343.0
sg31
F6680544.0
ssS'ELLIOTT STEVEN'
p41
(dp42
g3
g35
sg4
g5
sg6
F78552.0
sg7
I00
sg8
F0.024808358222818214
sg9
g10
sg11
S'steven.elliott@enron.com'
p43
sg13
g37
sg14
F-400729.0
sg16
g17
sg18
g38
sg19
g20
sg21
g39
sg22
F12961.0
sg23
g24
sg25
F350000.0
sg26
F6678735.0
sg27
g40
sg28
F1788391.0
sg29
F170941.0
sg30
F211725.0
sg31
F4890344.0
ssS'CORDES WILLIAM R'
p44
(dp45
g3
F764.0
sg4
g5
sg6
S'NaN'
p46
sg7
I00
sg8
S'NaN'
p47
sg9
g10
sg11
S'bill.cordes@enron.com'
p48
sg13
F10.0
sg14
g15
sg16
g17
sg18
F58.0
sg19
g20
sg21
F12.0
sg22
S'NaN'
p49
sg23
g24
sg25
S'NaN'
p50
sg26
F1038185.0
sg27
F0.0
sg28
F386335.0
sg29
S'NaN'
p51
sg30
S'NaN'
p52
sg31
F651850.0
ssS'HANNON KEVIN P'
p53
(dp54
g3
F1045.0
sg4
g5
sg6
F34039.0
sg7
I01
sg8
F0.036422487258873724
sg9
F1617011.0
sg11
S'kevin.hannon@enron.com'
p55
sg13
F32.0
sg14
F-3117011.0
sg16
g17
sg18
F1035.0
sg19
g20
sg21
F32.0
sg22
F11350.0
sg23
g24
sg25
F1500000.0
sg26
F6391065.0
sg27
F21.0
sg28
F853064.0
sg29
F243293.0
sg30
F288682.0
sg31
F5538001.0
ssS'MORDAUNT KRISTINA M'
p56
(dp57
g3
g35
sg4
g5
sg6
F35018.0
sg7
I00
sg8
F0.3190953272993147
sg9
g10
sg11
S'kristina.mordaunt@enron.com'
p58
sg13
g37
sg14
g15
sg16
g17
sg18
g38
sg19
g20
sg21
g39
sg22
F1411.0
sg23
g24
sg25
F325000.0
sg26
F208510.0
sg27
g40
sg28
F208510.0
sg29
F267093.0
sg30
F628522.0
sg31
g32
ssS'MEYER ROCKFORD G'
p59
(dp60
g3
F232.0
sg4
F1848227.0
sg6
g46
sg7
I00
sg8
g47
sg9
g10
sg11
S'rockford.meyer@enron.com'
p61
sg13
F0.0
sg14
g15
sg16
g17
sg18
F22.0
sg19
g20
sg21
F28.0
sg22
g49
sg23
g24
sg25
g50
sg26
F955873.0
sg27
F0.0
sg28
F462384.0
sg29
g51
sg30
F1848227.0
sg31
F493489.0
ssS'MCMAHON JEFFREY'
p62
(dp63
g3
F2355.0
sg4
g5
sg6
F137108.0
sg7
I00
sg8
F0.06428458136967417
sg9
F694862.0
sg11
S'jeffrey.mcmahon@enron.com'
p64
sg13
F58.0
sg14
g15
sg16
g17
sg18
F2228.0
sg19
g20
sg21
F48.0
sg22
F297353.0
sg23
g24
sg25
F2600000.0
sg26
F1662855.0
sg27
F26.0
sg28
F558801.0
sg29
F370448.0
sg30
F4099771.0
sg31
F1104054.0
ssS'HORTON STANLEY C'
p65
(dp66
g3
F2350.0
sg4
F3131860.0
sg6
g46
sg7
I00
sg8
g47
sg9
g10
sg11
S'stanley.horton@enron.com'
p67
sg13
F44.0
sg14
g15
sg16
g17
sg18
F1074.0
sg19
g20
sg21
F1073.0
sg22
g49
sg23
g24
sg25
g50
sg26
F7256648.0
sg27
F15.0
sg28
F2046079.0
sg29
g51
sg30
F3131860.0
sg31
F5210569.0
ssS'PIPER GREGORY F'
p68
(dp69
g3
F1238.0
sg4
F1130036.0
sg6
F43057.0
sg7
I00
sg8
F0.07528536979180792
sg9
g10
sg11
S'greg.piper@enron.com'
p70
sg13
F61.0
sg14
F-33333.0
sg16
F-409554.0
sg18
F742.0
sg19
g20
sg21
F222.0
sg22
F778.0
sg23
g24
sg25
F400000.0
sg26
F880290.0
sg27
F48.0
sg28
F409554.0
sg29
F197091.0
sg30
F1737629.0
sg31
F880290.0
ssS'HUMPHREY GENE E'
p71
(dp72
g3
F128.0
sg4
F2964506.0
sg6
F4994.0
sg7
I00
sg8
F0.024284635756471495
sg9
g10
sg11
S'gene.humphrey@enron.com'
p73
sg13
F10.0
sg14
g15
sg16
g17
sg18
F119.0
sg19
g20
sg21
F17.0
sg22
g49
sg23
g24
sg25
g50
sg26
F2282768.0
sg27
F17.0
sg28
S'NaN'
p74
sg29
F130724.0
sg30
F3100224.0
sg31
F2282768.0
ssS'UMANOFF ADAM S'
p75
(dp76
g3
F111.0
sg4
g5
sg6
F53122.0
sg7
I00
sg8
g47
sg9
g10
sg11
S'adam.umanoff@enron.com'
p77
sg13
F12.0
sg14
g15
sg16
g17
sg18
F41.0
sg19
g20
sg21
F18.0
sg22
g49
sg23
g24
sg25
F788750.0
sg26
S'NaN'
p78
sg27
F0.0
sg28
g74
sg29
F288589.0
sg30
F1130461.0
sg31
g32
ssS'BLACHMAN JEREMY M'
p79
(dp80
g3
F2475.0
sg4
g5
sg6
F84208.0
sg7
I00
sg8
F0.08370837962824192
sg9
F831809.0
sg11
S'jeremy.blachman@enron.com'
p81
sg13
F25.0
sg14
g15
sg16
g17
sg18
F2326.0
sg19
g20
sg21
F14.0
sg22
F272.0
sg23
g24
sg25
F850000.0
sg26
F954354.0
sg27
F2.0
sg28
F189041.0
sg29
F248546.0
sg30
F2014835.0
sg31
F765313.0
ssS'SUNDE MARTIN'
p82
(dp83
g3
F2647.0
sg4
g5
sg6
g46
sg7
I00
sg8
F0.11474528059308933
sg9
F476451.0
sg11
S'marty.sunde@enron.com'
p84
sg13
F37.0
sg14
g15
sg16
g17
sg18
F2565.0
sg19
g20
sg21
F38.0
sg22
F111122.0
sg23
g24
sg25
F700000.0
sg26
F698920.0
sg27
F13.0
sg28
F698920.0
sg29
F257486.0
sg30
F1545059.0
sg31
g32
ssS'GIBBS DANA R'
p85
(dp86
g3
F169.0
sg4
F504610.0
sg6
g46
sg7
I00
sg8
g47
sg9
F461912.0
sg11
S'dana.gibbs@enron.com'
p87
sg13
F0.0
sg14
g15
sg16
g17
sg18
F23.0
sg19
g20
sg21
F12.0
sg22
g49
sg23
g24
sg25
g50
sg26
F2218275.0
sg27
F0.0
sg28
g74
sg29
g51
sg30
F966522.0
sg31
F2218275.0
ssS'LOWRY CHARLES P'
p88
(dp89
g3
g35
sg4
g5
sg6
g46
sg7
I00
sg8
g47
sg9
g10
sg11
g36
sg13
g37
sg14
g15
sg16
F-153686.0
sg18
g38
sg19
g20
sg21
g39
sg22
g49
sg23
g24
sg25
g50
sg26
F372205.0
sg27
g40
sg28
F153686.0
sg29
g51
sg30
g52
sg31
F372205.0
ssS'COLWELL WESLEY'
p90
(dp91
g3
F1758.0
sg4
F27610.0
sg6
F16514.0
sg7
I01
sg8
F0.13183946164327104
sg9
g10
sg11
S'wes.colwell@enron.com'
p92
sg13
F240.0
sg14
F-144062.0
sg16
g17
sg18
F1132.0
sg19
g20
sg21
F40.0
sg22
F101740.0
sg23
g24
sg25
F1200000.0
sg26
F698242.0
sg27
F11.0
sg28
F698242.0
sg29
F288542.0
sg30
F1490344.0
sg31
g32
ssS'MULLER MARK S'
p93
(dp94
g3
F136.0
sg4
F842924.0
sg6
g46
sg7
I00
sg8
F0.05448332271757152
sg9
F1725545.0
sg11
S's..muller@enron.com'
p95
sg13
F12.0
sg14
F-719000.0
sg16
g17
sg18
F114.0
sg19
g20
sg21
F16.0
sg22
F947.0
sg23
g24
sg25
F1100000.0
sg26
F1416848.0
sg27
F0.0
sg28
F360528.0
sg29
F251654.0
sg30
F3202070.0
sg31
F1056320.0
ssS'JACKSON CHARLENE R'
p96
(dp97
g3
F258.0
sg4
g5
sg6
F10181.0
sg7
I00
sg8
F0.22598164786997352
sg9
g10
sg11
S'charlene.jackson@enron.com'
p98
sg13
F25.0
sg14
g15
sg16
g17
sg18
F117.0
sg19
g20
sg21
F56.0
sg22
F2435.0
sg23
g24
sg25
F250000.0
sg26
F725735.0
sg27
F19.0
sg28
F540672.0
sg29
F288558.0
sg30
F551174.0
sg31
F185063.0
ssS'WESTFAHL RICHARD K'
p99
(dp100
g3
g35
sg4
g5
sg6
F51870.0
sg7
I00
sg8
F0.0555713930771142
sg9
F256191.0
sg11
S'dick.westfahl@enron.com'
p101
sg13
g37
sg14
F-10800.0
sg16
g17
sg18
g38
sg19
g20
sg21
g39
sg22
F401130.0
sg23
g24
sg25
g50
sg26
F384930.0
sg27
g40
sg28
F384930.0
sg29
F63744.0
sg30
F762135.0
sg31
g32
ssS'WALTERS GARETH W'
p102
(dp103
g3
g35
sg4
F53625.0
sg6
F33785.0
sg7
I00
sg8
g47
sg9
g10
sg11
g36
sg13
g37
sg14
g15
sg16
g17
sg18
g38
sg19
g20
sg21
g39
sg22
g49
sg23
g24
sg25
g50
sg26
F1030329.0
sg27
g40
sg28
g74
sg29
g51
sg30
F87410.0
sg31
F1030329.0
ssS'WALLS JR ROBERT H'
p104
(dp105
g3
F671.0
sg4
g5
sg6
F50936.0
sg7
I00
sg8
F0.04638884706584771
sg9
F540751.0
sg11
S'rob.walls@enron.com'
p106
sg13
F17.0
sg14
g15
sg16
g17
sg18
F215.0
sg19
g20
sg21
F146.0
sg22
F2.0
sg23
g24
sg25
F850000.0
sg26
F5898997.0
sg27
F0.0
sg28
F1552453.0
sg29
F357091.0
sg30
F1798780.0
sg31
F4346544.0
ssS'KITCHEN LOUISE'
p107
(dp108
g3
F8305.0
sg4
g5
sg6
F5774.0
sg7
I00
sg8
F0.06755172108292992
sg9
g10
sg11
S'louise.kitchen@enron.com'
p109
sg13
F251.0
sg14
g15
sg16
g17
sg18
F3669.0
sg19
g20
sg21
F1728.0
sg22
F93925.0
sg23
g24
sg25
F3100000.0
sg26
F547143.0
sg27
F194.0
sg28
F466101.0
sg29
F271442.0
sg30
F3471141.0
sg31
F81042.0
ssS'CHAN RONNIE'
p110
(dp111
g3
g35
sg4
g5
sg6
g46
sg7
I00
sg8
g47
sg9
g10
sg11
g36
sg13
g37
sg14
F-98784.0
sg16
F-32460.0
sg18
g38
sg19
g20
sg21
g39
sg22
g49
sg23
F98784.0
sg25
g50
sg26
g78
sg27
g40
sg28
F32460.0
sg29
g51
sg30
g52
sg31
g32
ssS'BELFER ROBERT'
p112
(dp113
g3
g35
sg4
g5
sg6
F3285.0
sg7
I00
sg8
g47
sg9
g10
sg11
g36
sg13
g37
sg14
F-102500.0
sg16
F-44093.0
sg18
g38
sg19
g20
sg21
g39
sg22
g49
sg23
F102500.0
sg25
g50
sg26
g78
sg27
g40
sg28
F44093.0
sg29
g51
sg30
F3285.0
sg31
g32
ssS'SHANKMAN JEFFREY A'
p114
(dp115
g3
F3221.0
sg4
g5
sg6
F178979.0
sg7
I00
sg8
F0.05950413805288748
sg9
F554422.0
sg11
S'jeffrey.shankman@enron.com'
p116
sg13
F94.0
sg14
g15
sg16
g17
sg18
F1730.0
sg19
g20
sg21
F2681.0
sg22
F1191.0
sg23
g24
sg25
F2000000.0
sg26
F2072035.0
sg27
F83.0
sg28
F630137.0
sg29
F304110.0
sg30
F3038702.0
sg31
F1441898.0
ssS'WODRASKA JOHN'
p117
(dp118
g3
g35
sg4
g5
sg6
g46
sg7
I00
sg8
g47
sg9
g10
sg11
S'john.wodraska@enron.com'
p119
sg13
g37
sg14
g15
sg16
g17
sg18
g38
sg19
g20
sg21
g39
sg22
F189583.0
sg23
g24
sg25
g50
sg26
g78
sg27
g40
sg28
g74
sg29
g51
sg30
F189583.0
sg31
g32
ssS'BERGSIEKER RICHARD P'
p120
(dp121
g3
F383.0
sg4
g5
sg6
F59175.0
sg7
I00
sg8
F0.14703242863033303
sg9
F180250.0
sg11
S'rick.bergsieker@enron.com'
p122
sg13
F4.0
sg14
F-485813.0
sg16
g17
sg18
F233.0
sg19
g20
sg21
F59.0
sg22
F427316.0
sg23
g24
sg25
F250000.0
sg26
F659249.0
sg27
F0.0
sg28
F659249.0
sg29
F187922.0
sg30
F618850.0
sg31
g32
ssS'URQUHART JOHN A'
p123
(dp124
g3
g35
sg4
g5
sg6
F228656.0
sg7
I00
sg8
g47
sg9
g10
sg11
g36
sg13
g37
sg14
F-36666.0
sg16
g17
sg18
g38
sg19
g20
sg21
g39
sg22
g49
sg23
F36666.0
sg25
g50
sg26
g78
sg27
g40
sg28
g74
sg29
g51
sg30
F228656.0
sg31
g32
ssS'BIBI PHILIPPE A'
p125
(dp126
g3
F1607.0
sg4
g5
sg6
F38559.0
sg7
I00
sg8
F0.05489656831240304
sg9
F369721.0
sg11
S'philippe.bibi@enron.com'
p127
sg13
F23.0
sg14
g15
sg16
g17
sg18
F1336.0
sg19
g20
sg21
F40.0
sg22
F425688.0
sg23
g24
sg25
F1000000.0
sg26
F1843816.0
sg27
F8.0
sg28
F378082.0
sg29
F213625.0
sg30
F2047593.0
sg31
F1465734.0
ssS'PIRO JIM'
p128
(dp129
g3
F58.0
sg4
g5
sg6
g46
sg7
I00
sg8
g47
sg9
g10
sg11
S'jim.piro@enron.com'
p130
sg13
F0.0
sg14
g15
sg16
g17
sg18
F3.0
sg19
g20
sg21
F16.0
sg22
g49
sg23
g24
sg25
g50
sg26
F47304.0
sg27
F1.0
sg28
F47304.0
sg29
g51
sg30
g52
sg31
g32
ssS'RIEKER PAULA H'
p131
(dp132
g3
F1328.0
sg4
F214678.0
sg6
F33271.0
sg7
I01
sg8
F0.0825719262541555
sg9
g10
sg11
S'paula.rieker@enron.com'
p133
sg13
F35.0
sg14
F-100000.0
sg16
g17
sg18
F1258.0
sg19
g20
sg21
F82.0
sg22
F1950.0
sg23
g24
sg25
F700000.0
sg26
F1918887.0
sg27
F48.0
sg28
F283649.0
sg29
F249201.0
sg30
F1099100.0
sg31
F1635238.0
ssS'WHALEY DAVID A'
p134
(dp135
g3
g35
sg4
g5
sg6
g46
sg7
I00
sg8
g47
sg9
g10
sg11
g36
sg13
g37
sg14
g15
sg16
g17
sg18
g38
sg19
g20
sg21
g39
sg22
g49
sg23
g24
sg25
g50
sg26
F98718.0
sg27
g40
sg28
g74
sg29
g51
sg30
g52
sg31
F98718.0
ssS'BECK SALLY W'
p136
(dp137
g3
F7315.0
sg4
g5
sg6
F37172.0
sg7
I00
sg8
F0.2112419470456901
sg9
g10
sg11
S'sally.beck@enron.com'
p138
sg13
F144.0
sg14
g15
sg16
g17
sg18
F2639.0
sg19
g20
sg21
F4343.0
sg22
F566.0
sg23
g24
sg25
F700000.0
sg26
F126027.0
sg27
F386.0
sg28
F126027.0
sg29
F231330.0
sg30
F969068.0
sg31
g32
ssS'HAUG DAVID L'
p139
(dp140
g3
F573.0
sg4
g5
sg6
F475.0
sg7
I00
sg8
g47
sg9
g10
sg11
S'david.haug@enron.com'
p141
sg13
F4.0
sg14
g15
sg16
g17
sg18
F471.0
sg19
g20
sg21
F19.0
sg22
g49
sg23
g24
sg25
g50
sg26
F2217299.0
sg27
F7.0
sg28
F2217299.0
sg29
g51
sg30
F475.0
sg31
g32
ssS'ECHOLS JOHN B'
p142
(dp143
g3
g35
sg4
g5
sg6
F21530.0
sg7
I00
sg8
F0.04923857113716527
sg9
F2234774.0
sg11
S'john.echols@enron.com'
p144
sg13
g37
sg14
g15
sg16
g17
sg18
g38
sg19
g20
sg21
g39
sg22
F53775.0
sg23
g24
sg25
F200000.0
sg26
F1008941.0
sg27
g40
sg28
F407503.0
sg29
F182245.0
sg30
F2692324.0
sg31
F601438.0
ssS'MENDELSOHN JOHN'
p145
(dp146
g3
g35
sg4
g5
sg6
F148.0
sg7
I00
sg8
g47
sg9
g10
sg11
g36
sg13
g37
sg14
F-103750.0
sg16
g17
sg18
g38
sg19
g20
sg21
g39
sg22
g49
sg23
F103750.0
sg25
g50
sg26
g78
sg27
g40
sg28
g74
sg29
g51
sg30
F148.0
sg31
g32
ssS'HICKERSON GARY J'
p147
(dp148
g3
F1320.0
sg4
g5
sg6
F98849.0
sg7
I00
sg8
F0.08394651851922318
sg9
F69223.0
sg11
S'gary.hickerson@enron.com'
p149
sg13
F40.0
sg14
g15
sg16
g17
sg18
F900.0
sg19
g20
sg21
F27.0
sg22
F1936.0
sg23
g24
sg25
F1700000.0
sg26
F441096.0
sg27
F1.0
sg28
F441096.0
sg29
F211788.0
sg30
F2081796.0
sg31
g32
ssS'CLINE KENNETH W'
p150
(dp151
g3
g35
sg4
g5
sg6
g46
sg7
I00
sg8
g47
sg9
g10
sg11
g36
sg13
g37
sg14
g15
sg16
F-472568.0
sg18
g38
sg19
g20
sg21
g39
sg22
g49
sg23
g24
sg25
g50
sg26
F189518.0
sg27
g40
sg28
F662086.0
sg29
g51
sg30
g52
sg31
g32
ssS'LEWIS RICHARD'
p152
(dp153
g3
F952.0
sg4
g5
sg6
g46
sg7
I00
sg8
g47
sg9
g10
sg11
S'richard.lewis@enron.com'
p154
sg13
F10.0
sg14
g15
sg16
g17
sg18
F739.0
sg19
g20
sg21
F26.0
sg22
g49
sg23
g24
sg25
g50
sg26
F850477.0
sg27
F0.0
sg28
g74
sg29
g51
sg30
g52
sg31
F850477.0
ssS'HAYES ROBERT E'
p155
(dp156
g3
F504.0
sg4
F7961.0
sg6
g46
sg7
I00
sg8
g47
sg9
g10
sg11
S'robert.hayes@enron.com'
p157
sg13
F16.0
sg14
g15
sg16
g17
sg18
F50.0
sg19
g20
sg21
F12.0
sg22
g49
sg23
g24
sg25
g50
sg26
F151418.0
sg27
F0.0
sg28
F151418.0
sg29
g51
sg30
F7961.0
sg31
g32
ssS'KOPPER MICHAEL J'
p158
(dp159
g3
g35
sg4
g5
sg6
F118134.0
sg7
I01
sg8
F0.06166216375214287
sg9
F602671.0
sg11
S'michael.kopper@enron.com'
p160
sg13
g37
sg14
g15
sg16
g17
sg18
g38
sg19
g20
sg21
g39
sg22
F907502.0
sg23
g24
sg25
F800000.0
sg26
F985032.0
sg27
g40
sg28
F985032.0
sg29
F224305.0
sg30
F2652612.0
sg31
g32
ssS'LEFF DANIEL P'
p161
(dp162
g3
F2822.0
sg4
g5
sg6
g46
sg7
I00
sg8
F0.09050184543811138
sg9
F1387399.0
sg11
S'dan.leff@enron.com'
p163
sg13
F67.0
sg14
g15
sg16
g17
sg18
F2672.0
sg19
g20
sg21
F63.0
sg22
F3083.0
sg23
g24
sg25
F1000000.0
sg26
F360528.0
sg27
F14.0
sg28
F360528.0
sg29
F273746.0
sg30
F2664228.0
sg31
g32
ssS'LAVORATO JOHN J'
p164
(dp165
g3
F7259.0
sg4
g5
sg6
F49537.0
sg7
I00
sg8
F0.02175913256936602
sg9
F2035380.0
sg11
S'john.lavorato@enron.com'
p166
sg13
F528.0
sg14
g15
sg16
g17
sg18
F3962.0
sg19
g20
sg21
F2585.0
sg22
F1552.0
sg23
g24
sg25
F8000000.0
sg26
F5167144.0
sg27
F411.0
sg28
F1008149.0
sg29
F339288.0
sg30
F10425757.0
sg31
F4158995.0
ssS'BERBERIAN DAVID'
p167
(dp168
g3
g35
sg4
g5
sg6
F11892.0
sg7
I00
sg8
F0.07956459926012732
sg9
g10
sg11
S'david.berberian@enron.com'
p169
sg13
g37
sg14
g15
sg16
g17
sg18
g38
sg19
g20
sg21
g39
sg22
g49
sg23
g24
sg25
g50
sg26
F2493616.0
sg27
g40
sg28
F869220.0
sg29
F216582.0
sg30
F228474.0
sg31
F1624396.0
ssS'DETMERING TIMOTHY J'
p170
(dp171
g3
g35
sg4
F875307.0
sg6
F52255.0
sg7
I00
sg8
F0.06512092383234007
sg9
F415657.0
sg11
S'timothy.detmering@enron.com'
p172
sg13
g37
sg14
F-775241.0
sg16
F-315068.0
sg18
g38
sg19
g20
sg21
g39
sg22
F1105.0
sg23
g24
sg25
F425000.0
sg26
F2027865.0
sg27
g40
sg28
F315068.0
sg29
F210500.0
sg30
F1204583.0
sg31
F2027865.0
ssS'WAKEHAM JOHN'
p173
(dp174
g3
g35
sg4
g5
sg6
F103773.0
sg7
I00
sg8
g47
sg9
g10
sg11
g36
sg13
g37
sg14
g15
sg16
g17
sg18
g38
sg19
g20
sg21
g39
sg22
g49
sg23
F109298.0
sg25
g50
sg26
g78
sg27
g40
sg28
g74
sg29
g51
sg30
F213071.0
sg31
g32
ssS'POWERS WILLIAM'
p175
(dp176
g3
F653.0
sg4
g5
sg6
g46
sg7
I00
sg8
g47
sg9
g10
sg11
S'ken.powers@enron.com'
p177
sg13
F0.0
sg14
F-17500.0
sg16
g17
sg18
F12.0
sg19
g20
sg21
F26.0
sg22
g49
sg23
F17500.0
sg25
g50
sg26
g78
sg27
F0.0
sg28
g74
sg29
g51
sg30
g52
sg31
g32
ssS'GOLD JOSEPH'
p178
(dp179
g3
g35
sg4
g5
sg6
g46
sg7
I00
sg8
F0.0902206716692279
sg9
F304805.0
sg11
S'joe.gold@enron.com'
p180
sg13
g37
sg14
g15
sg16
g17
sg18
g38
sg19
g20
sg21
g39
sg22
F819288.0
sg23
g24
sg25
F750000.0
sg26
F877611.0
sg27
g40
sg28
F441096.0
sg29
F272880.0
sg30
F2146973.0
sg31
F436515.0
ssS'BANNANTINE JAMES M'
p181
(dp182
g3
F566.0
sg4
g5
sg6
F56301.0
sg7
I00
sg8
F7.743903745711631e-05
sg9
g10
sg11
S'james.bannantine@enron.com'
p183
sg13
F39.0
sg14
F-5104.0
sg16
F-560222.0
sg18
F465.0
sg19
g20
sg21
F29.0
sg22
F864523.0
sg23
g24
sg25
g50
sg26
F5243487.0
sg27
F0.0
sg28
F1757552.0
sg29
F477.0
sg30
F916197.0
sg31
F4046157.0
ssS'DUNCAN JOHN H'
p184
(dp185
g3
g35
sg4
g5
sg6
g46
sg7
I00
sg8
g47
sg9
g10
sg11
g36
sg13
g37
sg14
F-25000.0
sg16
g17
sg18
g38
sg19
g20
sg21
g39
sg22
g49
sg23
F102492.0
sg25
g50
sg26
F371750.0
sg27
g40
sg28
g74
sg29
g51
sg30
F77492.0
sg31
F371750.0
ssS'SHAPIRO RICHARD S'
p186
(dp187
g3
F15149.0
sg4
g5
sg6
F137767.0
sg7
I00
sg8
F0.13160653033994293
sg9
g10
sg11
S'richard.shapiro@enron.com'
p188
sg13
F74.0
sg14
g15
sg16
g17
sg18
F4527.0
sg19
g20
sg21
F1215.0
sg22
F705.0
sg23
g24
sg25
F650000.0
sg26
F987001.0
sg27
F65.0
sg28
F379164.0
sg29
F269076.0
sg30
F1057548.0
sg31
F607837.0
ssS'SHERRIFF JOHN R'
p189
(dp190
g3
F3187.0
sg4
g5
sg6
g46
sg7
I00
sg8
F0.05744356188131081
sg9
F554422.0
sg11
S'john.sherriff@enron.com'
p191
sg13
F28.0
sg14
g15
sg16
g17
sg18
F2103.0
sg19
g20
sg21
F92.0
sg22
F1852186.0
sg23
g24
sg25
F1500000.0
sg26
F3128982.0
sg27
F23.0
sg28
F1293424.0
sg29
F428780.0
sg30
F4335388.0
sg31
F1835558.0
ssS'SHELBY REX'
p192
(dp193
g3
F225.0
sg4
g5
sg6
F22884.0
sg7
I01
sg8
F0.047102602089471465
sg9
g10
sg11
S'rex.shelby@enron.com'
p194
sg13
F13.0
sg14
F-4167.0
sg16
g17
sg18
F91.0
sg19
g20
sg21
F39.0
sg22
F1573324.0
sg23
g24
sg25
F200000.0
sg26
F2493616.0
sg27
F14.0
sg28
F869220.0
sg29
F211844.0
sg30
F2003885.0
sg31
F1624396.0
ssS'LEMAISTRE CHARLES'
p195
(dp196
g3
g35
sg4
g5
sg6
g46
sg7
I00
sg8
g47
sg9
g10
sg11
g36
sg13
g37
sg14
F-25000.0
sg16
g17
sg18
g38
sg19
g20
sg21
g39
sg22
g49
sg23
F112492.0
sg25
g50
sg26
F412878.0
sg27
g40
sg28
g74
sg29
g51
sg30
F87492.0
sg31
F412878.0
ssS'DEFFNER JOSEPH M'
p197
(dp198
g3
F714.0
sg4
g5
sg6
F41626.0
sg7
I00
sg8
F0.15068866696884184
sg9
F335349.0
sg11
S'joseph.deffner@enron.com'
p199
sg13
F115.0
sg14
g15
sg16
g17
sg18
F552.0
sg19
g20
sg21
F74.0
sg22
F25553.0
sg23
g24
sg25
F600000.0
sg26
F159211.0
sg27
F4.0
sg28
F141833.0
sg29
F206121.0
sg30
F1208649.0
sg31
F17378.0
ssS'KISHKILL JOSEPH G'
p200
(dp201
g3
g35
sg4
g5
sg6
F116335.0
sg7
I00
sg8
F0.10018502313076616
sg9
g10
sg11
S'joe.kishkill@enron.com'
p202
sg13
g37
sg14
F-51042.0
sg16
g17
sg18
g38
sg19
g20
sg21
g39
sg22
F465357.0
sg23
g24
sg25
g50
sg26
F1034346.0
sg27
g40
sg28
F1034346.0
sg29
F174246.0
sg30
F704896.0
sg31
g32
ssS'WHALLEY LAWRENCE G'
p203
(dp204
g3
F6019.0
sg4
g5
sg6
F57838.0
sg7
I00
sg8
F0.04744610132223502
sg9
F808346.0
sg11
S'greg.whalley@enron.com'
p205
sg13
F186.0
sg14
g15
sg16
g17
sg18
F3920.0
sg19
g20
sg21
F556.0
sg22
F301026.0
sg23
g24
sg25
F3000000.0
sg26
F6079137.0
sg27
F24.0
sg28
F2796177.0
sg29
F510364.0
sg30
F4677574.0
sg31
F3282960.0
ssS'MCCARTY DANNY J'
p206
(dp207
g3
F1433.0
sg4
g5
sg6
g46
sg7
I00
sg8
g47
sg9
g10
sg11
S'danny.mccarty@enron.com'
p208
sg13
F25.0
sg14
g15
sg16
g17
sg18
F508.0
sg19
g20
sg21
F215.0
sg22
g49
sg23
g24
sg25
g50
sg26
F758931.0
sg27
F2.0
sg28
F94556.0
sg29
g51
sg30
g52
sg31
F664375.0
ssS'MCCONNELL MICHAEL S'
p209
(dp210
g3
F3329.0
sg4
g5
sg6
F81364.0
sg7
I00
sg8
F0.07016395320609159
sg9
F554422.0
sg11
S'mike.mcconnell@enron.com'
p211
sg13
F92.0
sg14
g15
sg16
g17
sg18
F2189.0
sg19
g20
sg21
F2742.0
sg22
F540.0
sg23
g24
sg25
F1100000.0
sg26
F3101279.0
sg27
F194.0
sg28
F1478269.0
sg29
F365038.0
sg30
F2101364.0
sg31
F1623010.0
ssS'DELAINEY DAVID W'
p212
(dp213
g3
F3093.0
sg4
g5
sg6
F86174.0
sg7
I01
sg8
F0.04366808414970152
sg9
F1294981.0
sg11
S'david.delainey@enron.com'
p214
sg13
F66.0
sg14
g15
sg16
g17
sg18
F2097.0
sg19
g20
sg21
F3069.0
sg22
F1661.0
sg23
g24
sg25
F3000000.0
sg26
F3614261.0
sg27
F609.0
sg28
F1323148.0
sg29
F365163.0
sg30
F4747979.0
sg31
F2291113.0
ssS'SULLIVAN-SHAKLOVITZ COLLEEN'
p215
(dp216
g3
g35
sg4
F181993.0
sg6
g46
sg7
I00
sg8
F0.06892359883492236
sg9
F554422.0
sg11
g36
sg13
g37
sg14
g15
sg16
g17
sg18
g38
sg19
g20
sg21
g39
sg22
F162.0
sg23
g24
sg25
F100000.0
sg26
F1362375.0
sg27
g40
sg28
g74
sg29
F162779.0
sg30
F999356.0
sg31
F1362375.0
ssS'WROBEL BRUCE'
p217
(dp218
g3
g35
sg4
g5
sg6
g46
sg7
I00
sg8
g47
sg9
g10
sg11
g36
sg13
g37
sg14
g15
sg16
g17
sg18
g38
sg19
g20
sg21
g39
sg22
g49
sg23
g24
sg25
g50
sg26
F139130.0
sg27
g40
sg28
g74
sg29
g51
sg30
g52
sg31
F139130.0
ssS'LINDHOLM TOD A'
p219
(dp220
g3
g35
sg4
F204075.0
sg6
F57727.0
sg7
I00
sg8
F0.06001298952792279
sg9
F175000.0
sg11
S'tod.lindholm@enron.com'
p221
sg13
g37
sg14
g15
sg16
g17
sg18
g38
sg19
g20
sg21
g39
sg22
F2630.0
sg23
g24
sg25
F200000.0
sg26
F3064208.0
sg27
g40
sg28
F514847.0
sg29
F236457.0
sg30
F875889.0
sg31
F2549361.0
ssS'MEYER JEROME J'
p222
(dp223
g3
g35
sg4
g5
sg6
F2151.0
sg7
I00
sg8
g47
sg9
g10
sg11
g36
sg13
g37
sg14
F-38346.0
sg16
g17
sg18
g38
sg19
g20
sg21
g39
sg22
g49
sg23
F38346.0
sg25
g50
sg26
g78
sg27
g40
sg28
g74
sg29
g51
sg30
F2151.0
sg31
g32
ssS'LAY KENNETH L'
p224
(dp225
g3
F4273.0
sg4
F202911.0
sg6
F99832.0
sg7
I01
sg8
F0.007023789258327205
sg9
F3600000.0
sg11
S'kenneth.lay@enron.com'
p226
sg13
F123.0
sg14
F-300000.0
sg16
g17
sg18
F2411.0
sg19
F81525000.0
sg21
F36.0
sg22
F10359729.0
sg23
g24
sg25
F7000000.0
sg26
F49110078.0
sg27
F16.0
sg28
F14761694.0
sg29
F1072321.0
sg30
F103559793.0
sg31
F34348384.0
ssS'BUTTS ROBERT H'
p227
(dp228
g3
g35
sg4
g5
sg6
F9410.0
sg7
I00
sg8
F0.15481638952380444
sg9
F175000.0
sg11
S'bob.butts@enron.com'
p229
sg13
g37
sg14
F-75000.0
sg16
g17
sg18
g38
sg19
g20
sg21
g39
sg22
F150656.0
sg23
g24
sg25
F750000.0
sg26
F417619.0
sg27
g40
sg28
F417619.0
sg29
F261516.0
sg30
F1271582.0
sg31
g32
ssS'OLSON CINDY K'
p230
(dp231
g3
F1184.0
sg4
F77716.0
sg6
F63791.0
sg7
I00
sg8
F0.08377067041381557
sg9
F100000.0
sg11
S'cindy.olson@enron.com'
p232
sg13
F20.0
sg14
g15
sg16
g17
sg18
F856.0
sg19
g20
sg21
F52.0
sg22
F972.0
sg23
g24
sg25
F750000.0
sg26
F2606763.0
sg27
F15.0
sg28
F969729.0
sg29
F329078.0
sg30
F1321557.0
sg31
F1637034.0
ssS'MCDONALD REBECCA'
p233
(dp234
g3
F894.0
sg4
g5
sg6
g46
sg7
I00
sg8
g47
sg9
g10
sg11
S'rebecca.mcdonald@enron.com'
p235
sg13
F54.0
sg14
g15
sg16
g17
sg18
F720.0
sg19
g20
sg21
F13.0
sg22
g49
sg23
g24
sg25
g50
sg26
F1691366.0
sg27
F1.0
sg28
F934065.0
sg29
g51
sg30
g52
sg31
F757301.0
ssS'CUMBERLAND MICHAEL S'
p236
(dp237
g3
g35
sg4
g5
sg6
F22344.0
sg7
I00
sg8
F0.18200583524297761
sg9
F275000.0
sg11
g36
sg13
g37
sg14
g15
sg16
g17
sg18
g38
sg19
g20
sg21
g39
sg22
F713.0
sg23
g24
sg25
F325000.0
sg26
F207940.0
sg27
g40
sg28
F207940.0
sg29
F184899.0
sg30
F807956.0
sg31
g32
ssS'GAHN ROBERT S'
p238
(dp239
g3
g35
sg4
F73122.0
sg6
F50080.0
sg7
I00
sg8
F0.15748791002565635
sg9
g10
sg11
g36
sg13
g37
sg14
F-1042.0
sg16
g17
sg18
g38
sg19
g20
sg21
g39
sg22
F76547.0
sg23
g24
sg25
F509870.0
sg26
F318607.0
sg27
g40
sg28
F235370.0
sg29
F192008.0
sg30
F900585.0
sg31
F83237.0
ssS'MCCLELLAN GEORGE'
p240
(dp241
g3
F1744.0
sg4
g5
sg6
F228763.0
sg7
I00
sg8
F0.11621380520103908
sg9
g10
sg11
S'george.mcclellan@enron.com'
p242
sg13
F52.0
sg14
F-125000.0
sg16
g17
sg18
F1469.0
sg19
g20
sg21
F49.0
sg22
F51587.0
sg23
g24
sg25
F900000.0
sg26
F947861.0
sg27
F0.0
sg28
F441096.0
sg29
F263413.0
sg30
F1318763.0
sg31
F506765.0
ssS'HERMANN ROBERT J'
p243
(dp244
g3
g35
sg4
g5
sg6
F48357.0
sg7
I00
sg8
F0.13363041077171114
sg9
F150000.0
sg11
S'robert.hermann@enron.com'
p245
sg13
g37
sg14
F-280000.0
sg16
g17
sg18
g38
sg19
g20
sg21
g39
sg22
F416441.0
sg23
g24
sg25
F700000.0
sg26
F668132.0
sg27
g40
sg28
F480632.0
sg29
F262663.0
sg30
F1297461.0
sg31
F187500.0
ssS'SCRIMSHAW MATTHEW'
p246
(dp247
g3
g35
sg4
g5
sg6
g46
sg7
I00
sg8
g47
sg9
g10
sg11
S'matthew.scrimshaw@enron.com'
p248
sg13
g37
sg14
g15
sg16
g17
sg18
g38
sg19
g20
sg21
g39
sg22
g49
sg23
g24
sg25
g50
sg26
F759557.0
sg27
g40
sg28
g74
sg29
g51
sg30
g52
sg31
F759557.0
ssS'GATHMANN WILLIAM D'
p249
(dp250
g3
g35
sg4
g5
sg6
g46
sg7
I00
sg8
g47
sg9
g10
sg11
g36
sg13
g37
sg14
g15
sg16
F-72419.0
sg18
g38
sg19
g20
sg21
g39
sg22
g49
sg23
g24
sg25
g50
sg26
F1945360.0
sg27
g40
sg28
F264013.0
sg29
g51
sg30
g52
sg31
F1753766.0
ssS'HAEDICKE MARK E'
p251
(dp252
g3
F4009.0
sg4
F2157527.0
sg6
F76169.0
sg7
I00
sg8
F0.08024715587778108
sg9
F983346.0
sg11
S'mark.haedicke@enron.com'
p253
sg13
F180.0
sg14
F-934484.0
sg16
F-329825.0
sg18
F1847.0
sg19
g20
sg21
F1941.0
sg22
F52382.0
sg23
g24
sg25
F1150000.0
sg26
F803094.0
sg27
F61.0
sg28
F524169.0
sg29
F374125.0
sg30
F3859065.0
sg31
F608750.0
ssS'BOWEN JR RAYMOND M'
p254
(dp255
g3
F1858.0
sg4
g5
sg6
F65907.0
sg7
I01
sg8
F0.095357613727066
sg9
F974293.0
sg11
S'raymond.bowen@enron.com'
p256
sg13
F140.0
sg14
F-833.0
sg16
g17
sg18
F1593.0
sg19
g20
sg21
F27.0
sg22
F1621.0
sg23
g24
sg25
F1350000.0
sg26
F252055.0
sg27
F15.0
sg28
F252055.0
sg29
F278601.0
sg30
F2669589.0
sg31
g32
ssS'GILLIS JOHN'
p257
(dp258
g3
g35
sg4
g5
sg6
g46
sg7
I00
sg8
g47
sg9
g10
sg11
g36
sg13
g37
sg14
g15
sg16
g17
sg18
g38
sg19
g20
sg21
g39
sg22
g49
sg23
g24
sg25
g50
sg26
F85641.0
sg27
g40
sg28
F75838.0
sg29
g51
sg30
g52
sg31
F9803.0
ssS'FITZGERALD JAY L'
p259
(dp260
g3
F936.0
sg4
g5
sg6
F23870.0
sg7
I00
sg8
F0.06559647547028369
sg9
F556416.0
sg11
S'jay.fitzgerald@enron.com'
p261
sg13
F1.0
sg14
g15
sg16
g17
sg18
F723.0
sg19
g20
sg21
F16.0
sg22
F285414.0
sg23
g24
sg25
F350000.0
sg26
F1621236.0
sg27
F8.0
sg28
F956775.0
sg29
F199157.0
sg30
F1414857.0
sg31
F664461.0
ssS'MORAN MICHAEL P'
p262
(dp263
g3
F672.0
sg4
g5
sg6
g46
sg7
I00
sg8
g47
sg9
g10
sg11
S'michael.moran@enron.com'
p264
sg13
F0.0
sg14
g15
sg16
g17
sg18
F127.0
sg19
g20
sg21
F19.0
sg22
g49
sg23
g24
sg25
g50
sg26
F221141.0
sg27
F0.0
sg28
F161602.0
sg29
g51
sg30
g52
sg31
F59539.0
ssS'REDMOND BRIAN L'
p265
(dp266
g3
F1671.0
sg4
g5
sg6
F14689.0
sg7
I00
sg8
F0.012102196828659562
sg9
g10
sg11
S'brian.redmond@enron.com'
p267
sg13
F204.0
sg14
g15
sg16
g17
sg18
F1063.0
sg19
g20
sg21
F221.0
sg22
g49
sg23
g24
sg25
g50
sg26
F7890324.0
sg27
F49.0
sg28
F381285.0
sg29
F96840.0
sg30
F111529.0
sg31
F7509039.0
ssS'BAZELIDES PHILIP J'
p268
(dp269
g3
g35
sg4
F684694.0
sg6
g46
sg7
I00
sg8
F0.03285582392224986
sg9
F93750.0
sg11
g36
sg13
g37
sg14
g15
sg16
g17
sg18
g38
sg19
g20
sg21
g39
sg22
F874.0
sg23
g24
sg25
g50
sg26
F1599641.0
sg27
g40
sg28
g74
sg29
F80818.0
sg30
F860136.0
sg31
F1599641.0
ssS'BELDEN TIMOTHY N'
p270
(dp271
g3
F7991.0
sg4
F2144013.0
sg6
F17355.0
sg7
I01
sg8
F0.032363605292230355
sg9
g10
sg11
S'tim.belden@enron.com'
p272
sg13
F228.0
sg14
F-2334434.0
sg16
g17
sg18
F5521.0
sg19
g20
sg21
F484.0
sg22
F210698.0
sg23
g24
sg25
F5249999.0
sg26
F1110705.0
sg27
F108.0
sg28
F157569.0
sg29
F213999.0
sg30
F5501630.0
sg31
F953136.0
ssS'DURAN WILLIAM D'
p273
(dp274
g3
F904.0
sg4
g5
sg6
F25785.0
sg7
I00
sg8
F0.05642266708050216
sg9
F1105218.0
sg11
S'w.duran@enron.com'
p275
sg13
F106.0
sg14
g15
sg16
g17
sg18
F599.0
sg19
g20
sg21
F12.0
sg22
F1568.0
sg23
g24
sg25
F750000.0
sg26
F1640910.0
sg27
F3.0
sg28
F189041.0
sg29
F210692.0
sg30
F2093263.0
sg31
F1451869.0
ssS'THORN TERENCE H'
p276
(dp277
g3
F266.0
sg4
F16586.0
sg6
F46145.0
sg7
I00
sg8
F0.0387647665514276
sg9
F200000.0
sg11
S'terence.thorn@enron.com'
p278
sg13
F0.0
sg14
g15
sg16
g17
sg18
F73.0
sg19
g20
sg21
F41.0
sg22
F426629.0
sg23
g24
sg25
g50
sg26
F4817796.0
sg27
F0.0
sg28
F365320.0
sg29
F222093.0
sg30
F911453.0
sg31
F4452476.0
ssS'FASTOW ANDREW S'
p279
(dp280
g3
g35
sg4
g5
sg6
F55921.0
sg7
I01
sg8
F0.10446806266215795
sg9
F1736055.0
sg11
S'andrew.fastow@enron.com'
p281
sg13
g37
sg14
F-1386055.0
sg16
g17
sg18
g38
sg19
g20
sg21
g39
sg22
F277464.0
sg23
g24
sg25
F1300000.0
sg26
F1794412.0
sg27
g40
sg28
F1794412.0
sg29
F440698.0
sg30
F2424083.0
sg31
g32
ssS'FOY JOE'
p282
(dp283
g3
F57.0
sg4
F181755.0
sg6
g46
sg7
I00
sg8
g47
sg9
g10
sg11
S'tracy.foy@enron.com'
p284
sg13
F0.0
sg14
g15
sg16
g17
sg18
F2.0
sg19
g20
sg21
F13.0
sg22
g49
sg23
g24
sg25
g50
sg26
F343434.0
sg27
F0.0
sg28
g74
sg29
g51
sg30
F181755.0
sg31
F343434.0
ssS'CALGER CHRISTOPHER F'
p285
(dp286
g3
F2598.0
sg4
g5
sg6
F35818.0
sg7
I01
sg8
F0.13605944291246252
sg9
F375304.0
sg11
S'christopher.calger@enron.com'
p287
sg13
F199.0
sg14
F-262500.0
sg16
g17
sg18
F2188.0
sg19
g20
sg21
F144.0
sg22
F486.0
sg23
g24
sg25
F1250000.0
sg26
F126027.0
sg27
F25.0
sg28
F126027.0
sg29
F240189.0
sg30
F1639297.0
sg31
g32
ssS'RICE KENNETH D'
p288
(dp289
g3
F905.0
sg4
g5
sg6
F46950.0
sg7
I01
sg8
F0.018250759331051938
sg9
F1617011.0
sg11
S'ken.rice@enron.com'
p290
sg13
F42.0
sg14
F-3504386.0
sg16
g17
sg18
F864.0
sg19
g20
sg21
F18.0
sg22
F174839.0
sg23
g24
sg25
F1750000.0
sg26
F22542539.0
sg27
F4.0
sg28
F2748364.0
sg29
F420636.0
sg30
F505050.0
sg31
F19794175.0
ssS'KAMINSKI WINCENTY J'
p291
(dp292
g3
F4607.0
sg4
g5
sg6
F83585.0
sg7
I00
sg8
F0.13335915511392446
sg9
F323466.0
sg11
S'vince.kaminski@enron.com'
p293
sg13
F41.0
sg14
g15
sg16
g17
sg18
F583.0
sg19
g20
sg21
F14368.0
sg22
F4669.0
sg23
g24
sg25
F400000.0
sg26
F976037.0
sg27
F171.0
sg28
F126027.0
sg29
F275101.0
sg30
F1086821.0
sg31
F850010.0
ssS'COX DAVID'
p294
(dp295
g3
F102.0
sg4
g5
sg6
F27861.0
sg7
I00
sg8
F0.19679579418243662
sg9
g10
sg11
S'chip.cox@enron.com'
p296
sg13
F0.0
sg14
F-41250.0
sg16
g17
sg18
F71.0
sg19
g20
sg21
F33.0
sg22
F494.0
sg23
g24
sg25
F800000.0
sg26
F495633.0
sg27
F4.0
sg28
F378082.0
sg29
F314288.0
sg30
F1101393.0
sg31
F117551.0
ssS'OVERDYKE JR JERE C'
p297
(dp298
g3
g35
sg4
g5
sg6
F18834.0
sg7
I00
sg8
F0.01256268540649201
sg9
F135836.0
sg11
S'jere.overdyke@enron.com'
p299
sg13
g37
sg14
g15
sg16
g17
sg18
g38
sg19
g20
sg21
g39
sg22
F176.0
sg23
g24
sg25
g50
sg26
F7307594.0
sg27
g40
sg28
F2041016.0
sg29
F94941.0
sg30
F249787.0
sg31
F5266578.0
ssS'PEREIRA PAULO V. FERRAZ'
p300
(dp301
g3
g35
sg4
g5
sg6
F27942.0
sg7
I00
sg8
g47
sg9
g10
sg11
g36
sg13
g37
sg14
F-101250.0
sg16
g17
sg18
g38
sg19
g20
sg21
g39
sg22
g49
sg23
F101250.0
sg25
g50
sg26
g78
sg27
g40
sg28
g74
sg29
g51
sg30
F27942.0
sg31
g32
ssS'STABLER FRANK'
p302
(dp303
g3
g35
sg4
g5
sg6
F16514.0
sg7
I00
sg8
F0.14749285789505123
sg9
g10
sg11
S'frank.stabler@enron.com'
p304
sg13
g37
sg14
g15
sg16
g17
sg18
g38
sg19
g20
sg21
g39
sg22
F356071.0
sg23
g24
sg25
F500000.0
sg26
F511734.0
sg27
g40
sg28
F511734.0
sg29
F239502.0
sg30
F1112087.0
sg31
g32
ssS'SKILLING JEFFREY K'
p305
(dp306
g3
F3627.0
sg4
g5
sg6
F29336.0
sg7
I01
sg8
F0.03195438238151702
sg9
F1920000.0
sg11
S'jeff.skilling@enron.com'
p307
sg13
F88.0
sg14
g15
sg16
g17
sg18
F2042.0
sg19
g20
sg21
F108.0
sg22
F22122.0
sg23
g24
sg25
F5600000.0
sg26
F26093672.0
sg27
F30.0
sg28
F6843672.0
sg29
F1111258.0
sg30
F8682716.0
sg31
F19250000.0
ssS'BLAKE JR. NORMAN P'
p308
(dp309
g3
g35
sg4
g5
sg6
F1279.0
sg7
I00
sg8
g47
sg9
g10
sg11
g36
sg13
g37
sg14
F-113784.0
sg16
g17
sg18
g38
sg19
g20
sg21
g39
sg22
g49
sg23
F113784.0
sg25
g50
sg26
g78
sg27
g40
sg28
g74
sg29
g51
sg30
F1279.0
sg31
g32
ssS'SHERRICK JEFFREY B'
p310
(dp311
g3
F613.0
sg4
g5
sg6
g46
sg7
I00
sg8
g47
sg9
g10
sg11
S'jeffrey.sherrick@enron.com'
p312
sg13
F39.0
sg14
g15
sg16
g17
sg18
F583.0
sg19
g20
sg21
F25.0
sg22
g49
sg23
g24
sg25
g50
sg26
F1832468.0
sg27
F18.0
sg28
F405999.0
sg29
g51
sg30
g52
sg31
F1426469.0
ssS'PRENTICE JAMES'
p313
(dp314
g3
g35
sg4
F564348.0
sg6
g46
sg7
I00
sg8
g47
sg9
g10
sg11
S'james.prentice@enron.com'
p315
sg13
g37
sg14
g15
sg16
g17
sg18
g38
sg19
g20
sg21
g39
sg22
g49
sg23
g24
sg25
g50
sg26
F1095040.0
sg27
g40
sg28
F208809.0
sg29
g51
sg30
F564348.0
sg31
F886231.0
ssS'GRAY RODNEY'
p316
(dp317
g3
g35
sg4
F93585.0
sg6
g46
sg7
I00
sg8
g47
sg9
F365625.0
sg11
g36
sg13
g37
sg14
g15
sg16
g17
sg18
g38
sg19
g20
sg21
g39
sg22
F680833.0
sg23
g24
sg25
g50
sg26
g78
sg27
g40
sg28
g74
sg29
F6615.0
sg30
F1146658.0
sg31
g32
ssS'PICKERING MARK R'
p318
(dp319
g3
F898.0
sg4
g5
sg6
F31653.0
sg7
I00
sg8
F0.46276407853687207
sg9
g10
sg11
S'mark.pickering@enron.com'
p320
sg13
F7.0
sg14
g15
sg16
g17
sg18
F728.0
sg19
F400000.0
sg21
F67.0
sg22
g49
sg23
g24
sg25
F300000.0
sg26
F28798.0
sg27
F0.0
sg28
g74
sg29
F655037.0
sg30
F1386690.0
sg31
F28798.0
ssS'NOLES JAMES L'
p321
(dp322
g3
g35
sg4
F774401.0
sg6
g46
sg7
I00
sg8
g47
sg9
g10
sg11
g36
sg13
g37
sg14
g15
sg16
F-94556.0
sg18
g38
sg19
g20
sg21
g39
sg22
g49
sg23
g24
sg25
g50
sg26
F368705.0
sg27
g40
sg28
F463261.0
sg29
g51
sg30
F774401.0
sg31
g32
ssS'KEAN STEVEN J'
p323
(dp324
g3
F12754.0
sg4
g5
sg6
F41953.0
sg7
I00
sg8
F0.05117448517712074
sg9
F300000.0
sg11
S'steven.kean@enron.com'
p325
sg13
F140.0
sg14
g15
sg16
g17
sg18
F3639.0
sg19
g20
sg21
F6759.0
sg22
F1231.0
sg23
g24
sg25
F1000000.0
sg26
F6153642.0
sg27
F387.0
sg28
F4131594.0
sg29
F404338.0
sg30
F1747522.0
sg31
F2022048.0
ssS'FOWLER PEGGY'
p326
(dp327
g3
F517.0
sg4
g5
sg6
g46
sg7
I00
sg8
g47
sg9
g10
sg11
S'kulvinder.fowler@enron.com'
p328
sg13
F0.0
sg14
g15
sg16
g17
sg18
F10.0
sg19
g20
sg21
F36.0
sg22
g49
sg23
g24
sg25
g50
sg26
F1884748.0
sg27
F0.0
sg28
F560170.0
sg29
g51
sg30
g52
sg31
F1324578.0
ssS'WASAFF GEORGE'
p329
(dp330
g3
F400.0
sg4
F831299.0
sg6
g46
sg7
I00
sg8
F0.08411872310990409
sg9
F200000.0
sg11
S'george.wasaff@enron.com'
p331
sg13
F22.0
sg14
F-583325.0
sg16
g17
sg18
F337.0
sg19
g20
sg21
F30.0
sg22
F1425.0
sg23
g24
sg25
F325000.0
sg26
F2056427.0
sg27
F7.0
sg28
F388167.0
sg29
F259996.0
sg30
F1034395.0
sg31
F1668260.0
ssS'WHITE JR THOMAS E'
p332
(dp333
g3
g35
sg4
g5
sg6
F81353.0
sg7
I00
sg8
F0.018593163022334186
sg9
g10
sg11
S'thomas.white@enron.com'
p334
sg13
g37
sg14
g15
sg16
g17
sg18
g38
sg19
g20
sg21
g39
sg22
F1085463.0
sg23
g24
sg25
F450000.0
sg26
F15144123.0
sg27
g40
sg28
F13847074.0
sg29
F317543.0
sg30
F1934359.0
sg31
F1297049.0
ssS'CHRISTODOULOU DIOMEDES'
p335
(dp336
g3
g35
sg4
g5
sg6
g46
sg7
I00
sg8
g47
sg9
g10
sg11
S'diomedes.christodoulou@enron.com'
p337
sg13
g37
sg14
g15
sg16
g17
sg18
g38
sg19
g20
sg21
g39
sg22
g49
sg23
g24
sg25
g50
sg26
F6077885.0
sg27
g40
sg28
F950730.0
sg29
g51
sg30
g52
sg31
F5127155.0
ssS'ALLEN PHILLIP K'
p338
(dp339
g3
F2902.0
sg4
F2869717.0
sg6
F13868.0
sg7
I00
sg8
F0.032500088912377136
sg9
F304805.0
sg11
S'phillip.allen@enron.com'
p340
sg13
F47.0
sg14
F-3081055.0
sg16
F-126027.0
sg18
F1407.0
sg19
g20
sg21
F2195.0
sg22
F152.0
sg23
g24
sg25
F4175000.0
sg26
F1729541.0
sg27
F65.0
sg28
F126027.0
sg29
F201955.0
sg30
F4484442.0
sg31
F1729541.0
ssS'SHARP VICTORIA T'
p341
(dp342
g3
F3136.0
sg4
F187469.0
sg6
F116337.0
sg7
I00
sg8
F0.11983983750006641
sg9
F422158.0
sg11
S'vicki.sharp@enron.com'
p343
sg13
F24.0
sg14
g15
sg16
g17
sg18
F2477.0
sg19
g20
sg21
F136.0
sg22
F2401.0
sg23
g24
sg25
F600000.0
sg26
F494136.0
sg27
F6.0
sg28
F213063.0
sg29
F248146.0
sg30
F1576511.0
sg31
F281073.0
ssS'JAEDICKE ROBERT'
p344
(dp345
g3
g35
sg4
g5
sg6
g46
sg7
I00
sg8
g47
sg9
g10
sg11
g36
sg13
g37
sg14
F-25000.0
sg16
F-44093.0
sg18
g38
sg19
g20
sg21
g39
sg22
g49
sg23
F108750.0
sg25
g50
sg26
F431750.0
sg27
g40
sg28
F44093.0
sg29
g51
sg30
F83750.0
sg31
F431750.0
ssS'WINOKUR JR. HERBERT S'
p346
(dp347
g3
g35
sg4
g5
sg6
F1413.0
sg7
I00
sg8
g47
sg9
g10
sg11
g36
sg13
g37
sg14
F-25000.0
sg16
g17
sg18
g38
sg19
g20
sg21
g39
sg22
g49
sg23
F108579.0
sg25
g50
sg26
g78
sg27
g40
sg28
g74
sg29
g51
sg30
F84992.0
sg31
g32
ssS'BROWN MICHAEL'
p348
(dp349
g3
F1486.0
sg4
g5
sg6
F49288.0
sg7
I00
sg8
g47
sg9
g10
sg11
S'michael.brown@enron.com'
p350
sg13
F13.0
sg14
g15
sg16
g17
sg18
F761.0
sg19
g20
sg21
F41.0
sg22
g49
sg23
g24
sg25
g50
sg26
g78
sg27
F1.0
sg28
g74
sg29
g51
sg30
F49288.0
sg31
g32
ssS'BADUM JAMES P'
p351
(dp352
g3
g35
sg4
F178980.0
sg6
F3486.0
sg7
I00
sg8
g47
sg9
g10
sg11
g36
sg13
g37
sg14
g15
sg16
g17
sg18
g38
sg19
g20
sg21
g39
sg22
g49
sg23
g24
sg25
g50
sg26
F257817.0
sg27
g40
sg28
g74
sg29
g51
sg30
F182466.0
sg31
F257817.0
ssS'HUGHES JAMES A'
p353
(dp354
g3
F719.0
sg4
g5
sg6
g46
sg7
I00
sg8
g47
sg9
g10
sg11
S'james.hughes@enron.com'
p355
sg13
F35.0
sg14
g15
sg16
g17
sg18
F589.0
sg19
g20
sg21
F34.0
sg22
g49
sg23
g24
sg25
g50
sg26
F1118394.0
sg27
F5.0
sg28
F363428.0
sg29
g51
sg30
g52
sg31
F754966.0
ssS'REYNOLDS LAWRENCE'
p356
(dp357
g3
g35
sg4
F51365.0
sg6
F8409.0
sg7
I00
sg8
F0.016549597670548654
sg9
F156250.0
sg11
g36
sg13
g37
sg14
F-200000.0
sg16
F-140264.0
sg18
g38
sg19
g20
sg21
g39
sg22
F202052.0
sg23
g24
sg25
F100000.0
sg26
F4221891.0
sg27
g40
sg28
F201483.0
sg29
F76399.0
sg30
F394475.0
sg31
F4160672.0
ssS'DIMICHELE RICHARD G'
p358
(dp359
g3
g35
sg4
g5
sg6
F35812.0
sg7
I00
sg8
F0.02459195654698565
sg9
F694862.0
sg11
S'richard.dimichele@enron.com'
p360
sg13
g37
sg14
g15
sg16
g17
sg18
g38
sg19
g20
sg21
g39
sg22
F374689.0
sg23
g24
sg25
F1000000.0
sg26
F8317782.0
sg27
g40
sg28
F126027.0
sg29
F262788.0
sg30
F2368151.0
sg31
F8191755.0
ssS'BHATNAGAR SANJAY'
p361
(dp362
g3
F523.0
sg4
g5
sg6
g46
sg7
I00
sg8
g47
sg9
g10
sg11
S'sanjay.bhatnagar@enron.com'
p363
sg13
F0.0
sg14
g15
sg16
F15456290.0
sg18
F463.0
sg19
g20
sg21
F29.0
sg22
F137864.0
sg23
F137864.0
sg25
g50
sg26
g78
sg27
F1.0
sg28
F2604490.0
sg29
g51
sg30
F15456290.0
sg31
F2604490.0
ssS'CARTER REBECCA C'
p364
(dp365
g3
F312.0
sg4
g5
sg6
g46
sg7
I00
sg8
g47
sg9
F75000.0
sg11
S'rebecca.carter@enron.com'
p366
sg13
F29.0
sg14
F-159792.0
sg16
F-307301.0
sg18
F196.0
sg19
g20
sg21
F15.0
sg22
F540.0
sg23
g24
sg25
F300000.0
sg26
g78
sg27
F7.0
sg28
F307301.0
sg29
F261809.0
sg30
F477557.0
sg31
g32
ssS'BUCHANAN HAROLD G'
p367
(dp368
g3
F1088.0
sg4
g5
sg6
F600.0
sg7
I00
sg8
F0.11986465887793105
sg9
F304805.0
sg11
S'john.buchanan@enron.com'
p369
sg13
F0.0
sg14
g15
sg16
g17
sg18
F23.0
sg19
g20
sg21
F125.0
sg22
F1215.0
sg23
g24
sg25
F500000.0
sg26
F1014505.0
sg27
F0.0
sg28
F189041.0
sg29
F248017.0
sg30
F1054637.0
sg31
F825464.0
ssS'YEAP SOON'
p370
(dp371
g3
g35
sg4
g5
sg6
F55097.0
sg7
I00
sg8
g47
sg9
g10
sg11
g36
sg13
g37
sg14
g15
sg16
g17
sg18
g38
sg19
g20
sg21
g39
sg22
g49
sg23
g24
sg25
g50
sg26
F192758.0
sg27
g40
sg28
g74
sg29
g51
sg30
F55097.0
sg31
F192758.0
ssS'MURRAY JULIA H'
p372
(dp373
g3
F2192.0
sg4
g5
sg6
F57580.0
sg7
I00
sg8
F0.16265256392521574
sg9
F125000.0
sg11
S'julia.murray@enron.com'
p374
sg13
F11.0
sg14
g15
sg16
g17
sg18
F395.0
sg19
g20
sg21
F45.0
sg22
F330.0
sg23
g24
sg25
F400000.0
sg26
F597461.0
sg27
F2.0
sg28
F196983.0
sg29
F229284.0
sg30
F812194.0
sg31
F400478.0
ssS'GARLAND C KEVIN'
p375
(dp376
g3
F209.0
sg4
g5
sg6
F48405.0
sg7
I00
sg8
F0.09418660273480867
sg9
F375304.0
sg11
S'kevin.garland@enron.com'
p377
sg13
F10.0
sg14
g15
sg16
g17
sg18
F178.0
sg19
g20
sg21
F44.0
sg22
F60814.0
sg23
g24
sg25
F850000.0
sg26
F896153.0
sg27
F27.0
sg28
F259907.0
sg29
F231946.0
sg30
F1566469.0
sg31
F636246.0
ssS'DODSON KEITH'
p378
(dp379
g3
F176.0
sg4
g5
sg6
F28164.0
sg7
I00
sg8
g47
sg9
g10
sg11
S'keith.dodson@enron.com'
p380
sg13
F10.0
sg14
g15
sg16
g17
sg18
F114.0
sg19
g20
sg21
F14.0
sg22
F774.0
sg23
g24
sg25
F70000.0
sg26
g78
sg27
F3.0
sg28
g74
sg29
F221003.0
sg30
F319941.0
sg31
g32
ssS'YEAGER F SCOTT'
p381
(dp382
g3
g35
sg4
g5
sg6
F53947.0
sg7
I01
sg8
F0.012936075925487654
sg9
g10
sg11
S'scott.yeager@enron.com'
p383
sg13
g37
sg14
g15
sg16
g17
sg18
g38
sg19
g20
sg21
g39
sg22
F147950.0
sg23
g24
sg25
g50
sg26
F11884758.0
sg27
g40
sg28
F3576206.0
sg29
F158403.0
sg30
F360300.0
sg31
F8308552.0
ssS'HIRKO JOSEPH'
p384
(dp385
g3
g35
sg4
F10259.0
sg6
F77978.0
sg7
I01
sg8
g47
sg9
g10
sg11
S'joe.hirko@enron.com'
p386
sg13
g37
sg14
g15
sg16
g17
sg18
g38
sg19
g20
sg21
g39
sg22
F2856.0
sg23
g24
sg25
g50
sg26
F30766064.0
sg27
g40
sg28
g74
sg29
g51
sg30
F91093.0
sg31
F30766064.0
ssS'DIETRICH JANET R'
p387
(dp388
g3
F2572.0
sg4
g5
sg6
F3475.0
sg7
I00
sg8
F0.0763535661633722
sg9
F556416.0
sg11
S'janet.dietrich@enron.com'
p389
sg13
F305.0
sg14
g15
sg16
g17
sg18
F1902.0
sg19
g20
sg21
F63.0
sg22
F473.0
sg23
g24
sg25
F600000.0
sg26
F1865087.0
sg27
F14.0
sg28
F315068.0
sg29
F250100.0
sg30
F1410464.0
sg31
F1550019.0
ssS'DERRICK JR. JAMES V'
p390
(dp391
g3
F2181.0
sg4
g5
sg6
F51124.0
sg7
I00
sg8
F0.05247581396528619
sg9
F484000.0
sg11
S'james.derrick@enron.com'
p392
sg13
F64.0
sg14
F-1284000.0
sg16
F-1787380.0
sg18
F1401.0
sg19
g20
sg21
F909.0
sg22
F7482.0
sg23
g24
sg25
F800000.0
sg26
F8831913.0
sg27
F20.0
sg28
F1787380.0
sg29
F492375.0
sg30
F550981.0
sg31
F8831913.0
ssS'FREVERT MARK A'
p393
(dp394
g3
F3275.0
sg4
F6426990.0
sg6
F86987.0
sg7
I00
sg8
F0.03328443877851143
sg9
F1617011.0
sg11
S'mark.frevert@enron.com'
p395
sg13
F242.0
sg14
F-3367011.0
sg16
g17
sg18
F2979.0
sg19
F2000000.0
sg21
F21.0
sg22
F7427621.0
sg23
g24
sg25
F2000000.0
sg26
F14622185.0
sg27
F6.0
sg28
F4188667.0
sg29
F1060932.0
sg30
F17252530.0
sg31
F10433518.0
ssS'PAI LOU L'
p396
(dp397
g3
g35
sg4
g5
sg6
F32047.0
sg7
I00
sg8
F0.009720350303639618
sg9
g10
sg11
S'lou.pai@enron.com'
p398
sg13
g37
sg14
g15
sg16
g17
sg18
g38
sg19
g20
sg21
g39
sg22
F1829457.0
sg23
g24
sg25
F1000000.0
sg26
F23817930.0
sg27
g40
sg28
F8453763.0
sg29
F261879.0
sg30
F3123383.0
sg31
F15364167.0
ssS'BAY FRANKLIN R'
p399
(dp400
g3
g35
sg4
F260455.0
sg6
F129142.0
sg7
I00
sg8
F0.2690786002178038
sg9
g10
sg11
S'frank.bay@enron.com'
p401
sg13
g37
sg14
F-201641.0
sg16
F-82782.0
sg18
g38
sg19
g20
sg21
g39
sg22
F69.0
sg23
g24
sg25
F400000.0
sg26
F63014.0
sg27
g40
sg28
F145796.0
sg29
F239671.0
sg30
F827696.0
sg31
g32
ssS'HAYSLETT RODERICK J'
p402
(dp403
g3
F2649.0
sg4
g5
sg6
g46
sg7
I00
sg8
g47
sg9
g10
sg11
S'rod.hayslett@enron.com'
p404
sg13
F35.0
sg14
g15
sg16
g17
sg18
F571.0
sg19
g20
sg21
F1061.0
sg22
g49
sg23
g24
sg25
g50
sg26
F346663.0
sg27
F38.0
sg28
F346663.0
sg29
g51
sg30
g52
sg31
g32
ssS'FUGH JOHN L'
p405
(dp406
g3
g35
sg4
F50591.0
sg6
g46
sg7
I00
sg8
g47
sg9
g10
sg11
g36
sg13
g37
sg14
g15
sg16
g17
sg18
g38
sg19
g20
sg21
g39
sg22
g49
sg23
g24
sg25
g50
sg26
F176378.0
sg27
g40
sg28
g74
sg29
g51
sg30
F50591.0
sg31
F176378.0
ssS'FALLON JAMES B'
p407
(dp408
g3
F1755.0
sg4
g5
sg6
F95924.0
sg7
I00
sg8
F0.050690835464812165
sg9
F374347.0
sg11
S'jim.fallon@enron.com'
p409
sg13
F42.0
sg14
g15
sg16
g17
sg18
F1604.0
sg19
g20
sg21
F75.0
sg22
F401481.0
sg23
g24
sg25
F2500000.0
sg26
F2332399.0
sg27
F37.0
sg28
F1392142.0
sg29
F304588.0
sg30
F3676340.0
sg31
F940257.0
ssS'KOENIG MARK E'
p410
(dp411
g3
F2374.0
sg4
g5
sg6
F127017.0
sg7
I01
sg8
F0.08836724755921352
sg9
F300000.0
sg11
S'mark.koenig@enron.com'
p412
sg13
F53.0
sg14
g15
sg16
g17
sg18
F2271.0
sg19
g20
sg21
F61.0
sg22
F150458.0
sg23
g24
sg25
F700000.0
sg26
F1920055.0
sg27
F15.0
sg28
F1248318.0
sg29
F309946.0
sg30
F1587421.0
sg31
F671737.0
ssS'SAVAGE FRANK'
p413
(dp414
g3
g35
sg4
g5
sg6
g46
sg7
I00
sg8
g47
sg9
g10
sg11
g36
sg13
g37
sg14
F-121284.0
sg16
g17
sg18
g38
sg19
g20
sg21
g39
sg22
g49
sg23
F125034.0
sg25
g50
sg26
g78
sg27
g40
sg28
g74
sg29
g51
sg30
F3750.0
sg31
g32
ssS'IZZO LAWRENCE L'
p415
(dp416
g3
F496.0
sg4
g5
sg6
F28093.0
sg7
I00
sg8
F0.0109331584178422
sg9
F312500.0
sg11
S'larry.izzo@enron.com'
p417
sg13
F28.0
sg14
g15
sg16
g17
sg18
F437.0
sg19
g20
sg21
F19.0
sg22
F1553729.0
sg23
g24
sg25
g50
sg26
F5819980.0
sg27
F5.0
sg28
F3654808.0
sg29
F85274.0
sg30
F1979596.0
sg31
F2165172.0
ssS'TILNEY ELIZABETH A'
p418
(dp419
g3
F460.0
sg4
g5
sg6
g46
sg7
I00
sg8
F0.15779793101468323
sg9
F275000.0
sg11
S'elizabeth.tilney@enron.com'
p420
sg13
F10.0
sg14
F-575000.0
sg16
g17
sg18
F379.0
sg19
g20
sg21
F19.0
sg22
F152055.0
sg23
g24
sg25
F300000.0
sg26
F1168042.0
sg27
F11.0
sg28
F576792.0
sg29
F247338.0
sg30
F399393.0
sg31
F591250.0
ssS'MARTIN AMANDA K'
p421
(dp422
g3
F1522.0
sg4
F85430.0
sg6
F8211.0
sg7
I00
sg8
F0.03335651991988029
sg9
F5145434.0
sg11
S'a..martin@enron.com'
p423
sg13
F8.0
sg14
g15
sg16
g17
sg18
F477.0
sg19
g20
sg21
F230.0
sg22
F2818454.0
sg23
g24
sg25
g50
sg26
F2070306.0
sg27
F0.0
sg28
g74
sg29
F349487.0
sg30
F8407016.0
sg31
F2070306.0
ssS'BUY RICHARD B'
p424
(dp425
g3
F3523.0
sg4
F649584.0
sg6
g46
sg7
I00
sg8
F0.0569889996365625
sg9
F769862.0
sg11
S'rick.buy@enron.com'
p426
sg13
F156.0
sg14
F-694862.0
sg16
g17
sg18
F2333.0
sg19
g20
sg21
F1053.0
sg22
F400572.0
sg23
g24
sg25
F900000.0
sg26
F3444470.0
sg27
F71.0
sg28
F901657.0
sg29
F330546.0
sg30
F2355702.0
sg31
F2542813.0
ssS'GRAMM WENDY L'
p427
(dp428
g3
g35
sg4
g5
sg6
g46
sg7
I00
sg8
g47
sg9
g10
sg11
g36
sg13
g37
sg14
g15
sg16
g17
sg18
g38
sg19
g20
sg21
g39
sg22
g49
sg23
F119292.0
sg25
g50
sg26
g78
sg27
g40
sg28
g74
sg29
g51
sg30
F119292.0
sg31
g32
ssS'CAUSEY RICHARD A'
p429
(dp430
g3
F1892.0
sg4
g5
sg6
F30674.0
sg7
I01
sg8
F0.09499107833516861
sg9
F350000.0
sg11
S'richard.causey@enron.com'
p431
sg13
F58.0
sg14
F-235000.0
sg16
g17
sg18
F1585.0
sg19
g20
sg21
F49.0
sg22
F307895.0
sg23
g24
sg25
F1000000.0
sg26
F2502063.0
sg27
F12.0
sg28
F2502063.0
sg29
F415189.0
sg30
F1868758.0
sg31
g32
ssS'TAYLOR MITCHELL S'
p432
(dp433
g3
F533.0
sg4
F227449.0
sg6
g46
sg7
I00
sg8
F0.05482220827163921
sg9
g10
sg11
S'mitchell.taylor@enron.com'
p434
sg13
F0.0
sg14
g15
sg16
g17
sg18
F300.0
sg19
g20
sg21
F29.0
sg22
g49
sg23
g24
sg25
F600000.0
sg26
F3745048.0
sg27
F0.0
sg28
F563798.0
sg29
F265214.0
sg30
F1092663.0
sg31
F3181250.0
ssS'DONAHUE JR JEFFREY M'
p435
(dp436
g3
F865.0
sg4
g5
sg6
F96268.0
sg7
I00
sg8
F0.1423796012567791
sg9
g10
sg11
S'jeff.donahue@enron.com'
p437
sg13
F188.0
sg14
F-300000.0
sg16
g17
sg18
F772.0
sg19
g20
sg21
F22.0
sg22
F891.0
sg23
g24
sg25
F800000.0
sg26
F1080988.0
sg27
F11.0
sg28
F315068.0
sg29
F278601.0
sg30
F875760.0
sg31
F765920.0
ssS'GLISAN JR BEN F'
p438
(dp439
g3
F873.0
sg4
g5
sg6
F125978.0
sg7
I01
sg8
F0.13407986034922445
sg9
F71023.0
sg11
S'ben.glisan@enron.com'
p440
sg13
F52.0
sg14
g15
sg16
g17
sg18
F874.0
sg19
g20
sg21
F16.0
sg22
F200308.0
sg23
g24
sg25
F600000.0
sg26
F778546.0
sg27
F6.0
sg28
F393818.0
sg29
F274975.0
sg30
F1272284.0
sg31
F384728.0
ss.