(lp0
S'poi'
p1
aS'exercised_stock_options'
p2
aS'total_payments'
p3
aS'bonus'
p4
aS'long_term_incentive'
p5
aS'shared_receipt_with_poi'
p6
aS'expenses'
p7
aS'from_poi_to_this_person'
p8
aS'from_this_person_to_poi'
p9
aS'salary'
p10
a.